
key_led.elf:     file format elf32-littlearm


Disassembly of section .text:

30000000 <_start>:
30000000:	e59f0010 	ldr	r0, [pc, #16]	; 30000018 <halt+0x4>
30000004:	e3a01000 	mov	r1, #0
30000008:	e5801000 	str	r1, [r0]
3000000c:	e3a0d431 	mov	sp, #822083584	; 0x31000000
30000010:	eb000001 	bl	3000001c <main>

30000014 <halt>:
30000014:	eafffffe 	b	30000014 <halt>
30000018:	e2700000 	rsbs	r0, r0, #0

3000001c <main>:
3000001c:	e52db004 	push	{fp}		; (str fp, [sp, #-4]!)
30000020:	e28db000 	add	fp, sp, #0
30000024:	e59f31ac 	ldr	r3, [pc, #428]	; 300001d8 <main+0x1bc>
30000028:	e59f21ac 	ldr	r2, [pc, #428]	; 300001dc <main+0x1c0>
3000002c:	e5832000 	str	r2, [r3]
30000030:	e59f31a8 	ldr	r3, [pc, #424]	; 300001e0 <main+0x1c4>
30000034:	e3a020ff 	mov	r2, #255	; 0xff
30000038:	e5832000 	str	r2, [r3]
3000003c:	e59f31a0 	ldr	r3, [pc, #416]	; 300001e4 <main+0x1c8>
30000040:	e3a02055 	mov	r2, #85	; 0x55
30000044:	e5832000 	str	r2, [r3]
30000048:	e59f2198 	ldr	r2, [pc, #408]	; 300001e8 <main+0x1cc>
3000004c:	e59f3194 	ldr	r3, [pc, #404]	; 300001e8 <main+0x1cc>
30000050:	e5933000 	ldr	r3, [r3]
30000054:	e1a03823 	lsr	r3, r3, #16
30000058:	e1a03803 	lsl	r3, r3, #16
3000005c:	e5823000 	str	r3, [r2]
30000060:	e59f3184 	ldr	r3, [pc, #388]	; 300001ec <main+0x1d0>
30000064:	e59f2180 	ldr	r2, [pc, #384]	; 300001ec <main+0x1d0>
30000068:	e5922000 	ldr	r2, [r2]
3000006c:	e3c220ff 	bic	r2, r2, #255	; 0xff
30000070:	e5832000 	str	r2, [r3]
30000074:	ea000002 	b	30000084 <main+0x68>
30000078:	e1a00000 	nop			; (mov r0, r0)
3000007c:	ea000000 	b	30000084 <main+0x68>
30000080:	e1a00000 	nop			; (mov r0, r0)
30000084:	e59f3164 	ldr	r3, [pc, #356]	; 300001f0 <main+0x1d4>
30000088:	e5933000 	ldr	r3, [r3]
3000008c:	e2033001 	and	r3, r3, #1
30000090:	e3530000 	cmp	r3, #0
30000094:	1a00000f 	bne	300000d8 <main+0xbc>
30000098:	e59f3150 	ldr	r3, [pc, #336]	; 300001f0 <main+0x1d4>
3000009c:	e5933000 	ldr	r3, [r3]
300000a0:	e2033001 	and	r3, r3, #1
300000a4:	e3530000 	cmp	r3, #0
300000a8:	1a00000a 	bne	300000d8 <main+0xbc>
300000ac:	e1a00000 	nop			; (mov r0, r0)
300000b0:	e59f3138 	ldr	r3, [pc, #312]	; 300001f0 <main+0x1d4>
300000b4:	e5933000 	ldr	r3, [r3]
300000b8:	e2033001 	and	r3, r3, #1
300000bc:	e3530000 	cmp	r3, #0
300000c0:	0afffffa 	beq	300000b0 <main+0x94>
300000c4:	e59f3114 	ldr	r3, [pc, #276]	; 300001e0 <main+0x1c4>
300000c8:	e59f2110 	ldr	r2, [pc, #272]	; 300001e0 <main+0x1c4>
300000cc:	e5922000 	ldr	r2, [r2]
300000d0:	e2222001 	eor	r2, r2, #1
300000d4:	e5832000 	str	r2, [r3]
300000d8:	e59f3110 	ldr	r3, [pc, #272]	; 300001f0 <main+0x1d4>
300000dc:	e5933000 	ldr	r3, [r3]
300000e0:	e2033002 	and	r3, r3, #2
300000e4:	e3530000 	cmp	r3, #0
300000e8:	1a00000f 	bne	3000012c <main+0x110>
300000ec:	e59f30fc 	ldr	r3, [pc, #252]	; 300001f0 <main+0x1d4>
300000f0:	e5933000 	ldr	r3, [r3]
300000f4:	e2033002 	and	r3, r3, #2
300000f8:	e3530000 	cmp	r3, #0
300000fc:	1a00000a 	bne	3000012c <main+0x110>
30000100:	e1a00000 	nop			; (mov r0, r0)
30000104:	e59f30e4 	ldr	r3, [pc, #228]	; 300001f0 <main+0x1d4>
30000108:	e5933000 	ldr	r3, [r3]
3000010c:	e2033002 	and	r3, r3, #2
30000110:	e3530000 	cmp	r3, #0
30000114:	0afffffa 	beq	30000104 <main+0xe8>
30000118:	e59f30c0 	ldr	r3, [pc, #192]	; 300001e0 <main+0x1c4>
3000011c:	e59f20bc 	ldr	r2, [pc, #188]	; 300001e0 <main+0x1c4>
30000120:	e5922000 	ldr	r2, [r2]
30000124:	e2222002 	eor	r2, r2, #2
30000128:	e5832000 	str	r2, [r3]
3000012c:	e59f30bc 	ldr	r3, [pc, #188]	; 300001f0 <main+0x1d4>
30000130:	e5933000 	ldr	r3, [r3]
30000134:	e2033004 	and	r3, r3, #4
30000138:	e3530000 	cmp	r3, #0
3000013c:	1a00000f 	bne	30000180 <main+0x164>
30000140:	e59f30a8 	ldr	r3, [pc, #168]	; 300001f0 <main+0x1d4>
30000144:	e5933000 	ldr	r3, [r3]
30000148:	e2033004 	and	r3, r3, #4
3000014c:	e3530000 	cmp	r3, #0
30000150:	1a00000a 	bne	30000180 <main+0x164>
30000154:	e1a00000 	nop			; (mov r0, r0)
30000158:	e59f3090 	ldr	r3, [pc, #144]	; 300001f0 <main+0x1d4>
3000015c:	e5933000 	ldr	r3, [r3]
30000160:	e2033004 	and	r3, r3, #4
30000164:	e3530000 	cmp	r3, #0
30000168:	0afffffa 	beq	30000158 <main+0x13c>
3000016c:	e59f306c 	ldr	r3, [pc, #108]	; 300001e0 <main+0x1c4>
30000170:	e59f2068 	ldr	r2, [pc, #104]	; 300001e0 <main+0x1c4>
30000174:	e5922000 	ldr	r2, [r2]
30000178:	e2222004 	eor	r2, r2, #4
3000017c:	e5832000 	str	r2, [r3]
30000180:	e59f3068 	ldr	r3, [pc, #104]	; 300001f0 <main+0x1d4>
30000184:	e5933000 	ldr	r3, [r3]
30000188:	e2033008 	and	r3, r3, #8
3000018c:	e3530000 	cmp	r3, #0
30000190:	1affffb8 	bne	30000078 <main+0x5c>
30000194:	e59f3054 	ldr	r3, [pc, #84]	; 300001f0 <main+0x1d4>
30000198:	e5933000 	ldr	r3, [r3]
3000019c:	e2033008 	and	r3, r3, #8
300001a0:	e3530000 	cmp	r3, #0
300001a4:	1affffb5 	bne	30000080 <main+0x64>
300001a8:	e1a00000 	nop			; (mov r0, r0)
300001ac:	e59f303c 	ldr	r3, [pc, #60]	; 300001f0 <main+0x1d4>
300001b0:	e5933000 	ldr	r3, [r3]
300001b4:	e2033008 	and	r3, r3, #8
300001b8:	e3530000 	cmp	r3, #0
300001bc:	0afffffa 	beq	300001ac <main+0x190>
300001c0:	e59f3018 	ldr	r3, [pc, #24]	; 300001e0 <main+0x1c4>
300001c4:	e59f2014 	ldr	r2, [pc, #20]	; 300001e0 <main+0x1c4>
300001c8:	e5922000 	ldr	r2, [r2]
300001cc:	e2222008 	eor	r2, r2, #8
300001d0:	e5832000 	str	r2, [r3]
300001d4:	eaffffaa 	b	30000084 <main+0x68>
300001d8:	e0200280 	eor	r0, r0, r0, lsl #5
300001dc:	00001111 	andeq	r1, r0, r1, lsl r1
300001e0:	e0200284 	eor	r0, r0, r4, lsl #5
300001e4:	e0200288 	eor	r0, r0, r8, lsl #5
300001e8:	e0200c60 	eor	r0, r0, r0, ror #24
300001ec:	e0200c68 	eor	r0, r0, r8, ror #24
300001f0:	e0200c64 	eor	r0, r0, r4, ror #24

Disassembly of section .ARM.attributes:

00000000 <.ARM.attributes>:
   0:	00003341 	andeq	r3, r0, r1, asr #6
   4:	61656100 	cmnvs	r5, r0, lsl #2
   8:	01006962 	tsteq	r0, r2, ror #18
   c:	00000029 	andeq	r0, r0, r9, lsr #32
  10:	4d524105 	ldfmie	f4, [r2, #-20]	; 0xffffffec
  14:	36373131 	undefined instruction 0x36373131
  18:	2d465a4a 	vstrcs	s11, [r6, #-296]	; 0xfffffed8
  1c:	09060053 	stmdbeq	r6, {r0, r1, r4, r6}
  20:	01090108 	tsteq	r9, r8, lsl #2
  24:	0412020a 	ldreq	r0, [r2], #-522	; 0x20a
  28:	01150114 	tsteq	r5, r4, lsl r1
  2c:	01180317 	tsteq	r8, r7, lsl r3
  30:	031b021a 	tsteq	fp, #-1610612735	; 0xa0000001

Disassembly of section .comment:

00000000 <.comment>:
   0:	3a434347 	bcc	10d0d24 <_start-0x2ef2f2dc>
   4:	74632820 	strbtvc	r2, [r3], #-2080	; 0x820
   8:	312d676e 	teqcc	sp, lr, ror #14
   c:	312e382e 	teqcc	lr, lr, lsr #16
  10:	2941462d 	stmdbcs	r1, {r0, r2, r3, r5, r9, sl, lr}^
  14:	352e3420 	strcc	r3, [lr, #-1056]!	; 0x420
  18:	Address 0x00000018 is out of bounds.

